target datalayout = "e-m:e-p270:32:32-p271:32:32-p272:64:64-i64:64-i128:128-f80:128-n8:16:32:64-S128"
target triple = "x86_64-unknown-linux-gnu"

%"class.v8::IndirectHandleBase" = type { ptr }
%"class.node::MemoryRetainer" = type { ptr }
%"class.std::__shared_count" = type { ptr }
%"class.std::shared_ptr.302" = type { %"class.std::__shared_ptr.303" }
%"class.std::__shared_ptr.303" = type { ptr, %"class.std::__shared_count" }
%"class.node::quic::Stream" = type { %"class.node::AsyncWrap", %"class.node::bob::SourceImpl.base", %"class.node::DataQueue::BackpressureListener", %"class.node::AliasedStruct.398", %"class.node::AliasedStruct.399", %"class.node::BaseObjectPtrImpl.396", i32, i32, %"class.std::unique_ptr.400", %"class.std::shared_ptr.302", %"class.std::vector.408", i32, i64, %"class.node::ListNode.413" }
%"class.node::AsyncWrap" = type { %"class.node::BaseObject", i32, i8, double, double }
%"class.node::BaseObject" = type { %"class.node::MemoryRetainer", %"class.v8::Global", ptr, ptr }
%"class.v8::Global" = type { %"class.v8::PersistentBase" }
%"class.v8::PersistentBase" = type { %"class.v8::IndirectHandleBase" }
%"class.node::bob::SourceImpl.base" = type <{ %"class.node::bob::Source", i8 }>
%"class.node::bob::Source" = type { ptr }
%"class.node::DataQueue::BackpressureListener" = type { ptr }
%"class.node::AliasedStruct.398" = type { ptr, %"class.std::shared_ptr.306", ptr, %"class.v8::Global.309" }
%"class.std::shared_ptr.306" = type { %"class.std::__shared_ptr.307" }
%"class.std::__shared_ptr.307" = type { ptr, %"class.std::__shared_count" }
%"class.v8::Global.309" = type { %"class.v8::PersistentBase.310" }
%"class.v8::PersistentBase.310" = type { %"class.v8::IndirectHandleBase" }
%"class.node::AliasedStruct.399" = type { ptr, %"class.std::shared_ptr.306", ptr, %"class.v8::Global.309" }
%"class.node::BaseObjectPtrImpl.396" = type { %union.anon.397 }
%union.anon.397 = type { ptr }
%"class.std::unique_ptr.400" = type { %"struct.std::__uniq_ptr_data.401" }
%"struct.std::__uniq_ptr_data.401" = type { %"class.std::__uniq_ptr_impl.402" }
%"class.std::__uniq_ptr_impl.402" = type { %"class.std::tuple.403" }
%"class.std::tuple.403" = type { %"struct.std::_Tuple_impl.404" }
%"struct.std::_Tuple_impl.404" = type { %"struct.std::_Head_base.407" }
%"struct.std::_Head_base.407" = type { ptr }
%"class.std::vector.408" = type { %"struct.std::_Vector_base.409" }
%"struct.std::_Vector_base.409" = type { %"struct.std::_Vector_base<v8::Local<v8::Value>, std::allocator<v8::Local<v8::Value>>>::_Vector_impl" }
%"struct.std::_Vector_base<v8::Local<v8::Value>, std::allocator<v8::Local<v8::Value>>>::_Vector_impl" = type { %"struct.std::_Vector_base<v8::Local<v8::Value>, std::allocator<v8::Local<v8::Value>>>::_Vector_impl_data" }
%"struct.std::_Vector_base<v8::Local<v8::Value>, std::allocator<v8::Local<v8::Value>>>::_Vector_impl_data" = type { ptr, ptr, ptr }
%"class.node::ListNode.413" = type { ptr, ptr }
%"struct.node::quic::Stream::State" = type { i64, i8, i8, i8, i8, i8, i8, i8, i8, i8, i8, i8, i8 }
%"struct.node::BaseObject::PointerData" = type { i32, i32, i8, i8, ptr }

; Function Attrs: mustprogress nounwind uwtable
define linkonce_odr dso_local noundef ptr @_ZNK4node17BaseObjectPtrImplINS_4quic7SessionELb1EE12pointer_dataEv(ptr noundef nonnull align 8 dereferenceable(8) %this) #4 comdat align 2 {
entry:
  %this.addr = alloca ptr, align 8
  store ptr %this, ptr %this.addr, align 8
  %this1 = load ptr, ptr %this.addr, align 8
  %data_ = getelementptr inbounds %"class.node::BaseObjectPtrImpl.396", ptr %this1, i32 0, i32 0
  %0 = load ptr, ptr %data_, align 8
  ret ptr %0
}

; Function Attrs: mustprogress nounwind uwtable
define linkonce_odr dso_local noundef ptr @_ZNK4node17BaseObjectPtrImplINS_4quic7SessionELb1EE15get_base_objectEv(ptr noundef nonnull align 8 dereferenceable(8) %this) #4 comdat align 2 {
entry:
  %retval = alloca ptr, align 8
  %this.addr = alloca ptr, align 8
  store ptr %this, ptr %this.addr, align 8
  %this1 = load ptr, ptr %this.addr, align 8
  %call = call noundef ptr @_ZNK4node17BaseObjectPtrImplINS_4quic7SessionELb1EE12pointer_dataEv(ptr noundef nonnull align 8 dereferenceable(8) %this1)
  %cmp = icmp eq ptr %call, null
  br i1 %cmp, label %if.then, label %if.end

if.then:                                          ; preds = %entry
  store ptr null, ptr %retval, align 8
  br label %return

if.end:                                           ; preds = %entry
  %call2 = call noundef ptr @_ZNK4node17BaseObjectPtrImplINS_4quic7SessionELb1EE12pointer_dataEv(ptr noundef nonnull align 8 dereferenceable(8) %this1)
  %self = getelementptr inbounds %"struct.node::BaseObject::PointerData", ptr %call2, i32 0, i32 4
  %0 = load ptr, ptr %self, align 8
  store ptr %0, ptr %retval, align 8
  br label %return

return:                                           ; preds = %if.end, %if.then
  %1 = load ptr, ptr %retval, align 8
  ret ptr %1
}

; Function Attrs: mustprogress nounwind uwtable
define linkonce_odr dso_local noundef ptr @_ZNK4node17BaseObjectPtrImplINS_4quic7SessionELb1EE3getEv(ptr noundef nonnull align 8 dereferenceable(8) %this) #4 comdat align 2 {
entry:
  %this.addr = alloca ptr, align 8
  store ptr %this, ptr %this.addr, align 8
  %this1 = load ptr, ptr %this.addr, align 8
  %call = call noundef ptr @_ZNK4node17BaseObjectPtrImplINS_4quic7SessionELb1EE15get_base_objectEv(ptr noundef nonnull align 8 dereferenceable(8) %this1)
  ret ptr %call
}

; Function Attrs: mustprogress nounwind uwtable
define linkonce_odr dso_local noundef ptr @_ZNK4node13AliasedStructINS_4quic6Stream5StateEEptEv(ptr noundef nonnull align 8 dereferenceable(40) %this) #4 comdat align 2 {
entry:
  %this.addr = alloca ptr, align 8
  store ptr %this, ptr %this.addr, align 8
  %this1 = load ptr, ptr %this.addr, align 8
  %ptr_ = getelementptr inbounds %"class.node::AliasedStruct.399", ptr %this1, i32 0, i32 2
  %0 = load ptr, ptr %ptr_, align 8
  ret ptr %0
}

; Function Attrs: mustprogress nounwind uwtable
define dso_local noundef i64 @_ZNK4node4quic6Stream2idEv(ptr noundef nonnull align 8 dereferenceable(256) %this) #4 align 2 {
entry:
  %this.addr = alloca ptr, align 8
  store ptr %this, ptr %this.addr, align 8
  %this1 = load ptr, ptr %this.addr, align 8
  %state_ = getelementptr inbounds %"class.node::quic::Stream", ptr %this1, i32 0, i32 4
  %call = call noundef ptr @_ZNK4node13AliasedStructINS_4quic6Stream5StateEEptEv(ptr noundef nonnull align 8 dereferenceable(40) %state_)
  %id = getelementptr inbounds %"struct.node::quic::Stream::State", ptr %call, i32 0, i32 0
  %0 = load i64, ptr %id, align 8
  ret i64 %0
}

; Function Attrs: mustprogress nounwind uwtable
define linkonce_odr dso_local noundef ptr @_ZNK4node17BaseObjectPtrImplINS_4quic7SessionELb1EEptEv(ptr noundef nonnull align 8 dereferenceable(8) %this) #4 comdat align 2 {
entry:
  %this.addr = alloca ptr, align 8
  store ptr %this, ptr %this.addr, align 8
  %this1 = load ptr, ptr %this.addr, align 8
  %call = call noundef ptr @_ZNK4node17BaseObjectPtrImplINS_4quic7SessionELb1EE3getEv(ptr noundef nonnull align 8 dereferenceable(8) %this1)
  ret ptr %call
}

; Function Attrs: mustprogress nounwind uwtable
define linkonce_odr dso_local noundef zeroext i1 @_ZNK4node17BaseObjectPtrImplINS_4quic7SessionELb1EEcvbEv(ptr noundef nonnull align 8 dereferenceable(8) %this) #4 comdat align 2 {
entry:
  %this.addr = alloca ptr, align 8
  store ptr %this, ptr %this.addr, align 8
  %this1 = load ptr, ptr %this.addr, align 8
  %call = call noundef ptr @_ZNK4node17BaseObjectPtrImplINS_4quic7SessionELb1EE3getEv(ptr noundef nonnull align 8 dereferenceable(8) %this1)
  %cmp = icmp ne ptr %call, null
  ret i1 %cmp
}

; Function Attrs: mustprogress nounwind uwtable
define dso_local noundef zeroext i1 @_ZNK4node4quic6Stream12is_destroyedEv(ptr noundef nonnull align 8 dereferenceable(256) %this) #4 align 2 {
entry:
  %this.addr = alloca ptr, align 8
  store ptr %this, ptr %this.addr, align 8
  %this1 = load ptr, ptr %this.addr, align 8
  %state_ = getelementptr inbounds %"class.node::quic::Stream", ptr %this1, i32 0, i32 4
  %call = call noundef ptr @_ZNK4node13AliasedStructINS_4quic6Stream5StateEEptEv(ptr noundef nonnull align 8 dereferenceable(40) %state_)
  %destroyed = getelementptr inbounds %"struct.node::quic::Stream::State", ptr %call, i32 0, i32 5
  %0 = load i8, ptr %destroyed, align 4
  %tobool = icmp ne i8 %0, 0
  ret i1 %tobool
}

; Function Attrs: mustprogress nounwind uwtable
define dso_local void @_ZN4node4quic6Stream9EntryReadEm(ptr noundef nonnull align 8 dereferenceable(256) %this, i64 noundef %amount) unnamed_addr #4 align 2 {
entry:
  %this.addr = alloca ptr, align 8
  %amount.addr = alloca i64, align 8
  store ptr %this, ptr %this.addr, align 8
  store i64 %amount, ptr %amount.addr, align 8
  %this1 = load ptr, ptr %this.addr, align 8
  %call = call noundef zeroext i1 @_ZNK4node4quic6Stream12is_destroyedEv(ptr noundef nonnull align 8 dereferenceable(256) %this1)
  br i1 %call, label %if.end, label %land.lhs.true

land.lhs.true:                                    ; preds = %entry
  %session_ = getelementptr inbounds %"class.node::quic::Stream", ptr %this1, i32 0, i32 5
  %call2 = call noundef zeroext i1 @_ZNK4node17BaseObjectPtrImplINS_4quic7SessionELb1EEcvbEv(ptr noundef nonnull align 8 dereferenceable(8) %session_)
  br i1 %call2, label %if.then, label %if.end

if.then:                                          ; preds = %land.lhs.true
  %session_3 = getelementptr inbounds %"class.node::quic::Stream", ptr %this1, i32 0, i32 5
  %call4 = call noundef ptr @_ZNK4node17BaseObjectPtrImplINS_4quic7SessionELb1EEptEv(ptr noundef nonnull align 8 dereferenceable(8) %session_3)
  %call5 = call noundef i64 @_ZNK4node4quic6Stream2idEv(ptr noundef nonnull align 8 dereferenceable(256) %this1)
  %0 = load i64, ptr %amount.addr, align 8
  call void @_ZN4node4quic7Session18ExtendStreamOffsetElm(ptr noundef nonnull align 8 dereferenceable(2616) %call4, i64 noundef %call5, i64 noundef %0)
  br label %if.end

if.end:                                           ; preds = %if.then, %land.lhs.true, %entry
  ret void
}

; Function Attrs: nounwind uwtable
define dso_local void @_ZThn72_N4node4quic6Stream9EntryReadEm(ptr noundef %this, i64 noundef %amount) unnamed_addr #0 align 2 {
entry:
  %this.addr = alloca ptr, align 8
  %amount.addr = alloca i64, align 8
  store ptr %this, ptr %this.addr, align 8
  store i64 %amount, ptr %amount.addr, align 8
  %this1 = load ptr, ptr %this.addr, align 8
  %0 = getelementptr inbounds i8, ptr %this1, i64 -72
  %1 = load i64, ptr %amount.addr, align 8
  tail call void @_ZN4node4quic6Stream9EntryReadEm(ptr noundef nonnull align 8 dereferenceable(256) %0, i64 noundef %1)
  ret void
}