; Function Attrs: nounwind uwtable
define dso_local void @_ZThn72_N4node4quic6Stream9EntryReadEm(ptr nocapture noundef readonly %this, i64 noundef %amount) unnamed_addr #8 align 2 {
entry:
  %ptr_.i.i.i = getelementptr inbounds i8, ptr %this, i64 72
  %0 = load ptr, ptr %ptr_.i.i.i, align 8
  %destroyed.i.i = getelementptr inbounds i8, ptr %0, i64 12
  %1 = load i8, ptr %destroyed.i.i, align 4
  %tobool.i.not.i = icmp eq i8 %1, 0
  br i1 %tobool.i.not.i, label %land.lhs.true.i, label %_ZN4node4quic6Stream9EntryReadEm.exit

land.lhs.true.i:                                  ; preds = %entry
  %session_.i = getelementptr inbounds i8, ptr %this, i64 88
  %2 = load ptr, ptr %session_.i, align 8
  %cmp.i.i.i.i = icmp eq ptr %2, null
  br i1 %cmp.i.i.i.i, label %_ZN4node4quic6Stream9EntryReadEm.exit, label %_ZNK4node17BaseObjectPtrImplINS_4quic7SessionELb1EEcvbEv.exit.i

_ZNK4node17BaseObjectPtrImplINS_4quic7SessionELb1EEcvbEv.exit.i: ; preds = %land.lhs.true.i
  %self.i.i.i.i = getelementptr inbounds i8, ptr %2, i64 16
  %3 = load ptr, ptr %self.i.i.i.i, align 8
  %.not.i = icmp eq ptr %3, null
  br i1 %.not.i, label %_ZN4node4quic6Stream9EntryReadEm.exit, label %_ZNK4node17BaseObjectPtrImplINS_4quic7SessionELb1EEptEv.exit.i

_ZNK4node17BaseObjectPtrImplINS_4quic7SessionELb1EEptEv.exit.i: ; preds = %_ZNK4node17BaseObjectPtrImplINS_4quic7SessionELb1EEcvbEv.exit.i
  %4 = load i64, ptr %0, align 8
  tail call void @_ZN4node4quic7Session18ExtendStreamOffsetElm(ptr noundef nonnull align 8 dereferenceable(2616) %3, i64 noundef %4, i64 noundef %amount) #26
  br label %_ZN4node4quic6Stream9EntryReadEm.exit

_ZN4node4quic6Stream9EntryReadEm.exit:            ; preds = %entry, %land.lhs.true.i, %_ZNK4node17BaseObjectPtrImplINS_4quic7SessionELb1EEcvbEv.exit.i, %_ZNK4node17BaseObjectPtrImplINS_4quic7SessionELb1EEptEv.exit.i
  ret void
}